target datalayout = "e-m:e-p270:32:32-p271:32:32-p272:64:64-i64:64-i128:128-f80:128-n8:16:32:64-S128"
target triple = "x86_64-pc-linux-gnu"

%struct.stat = type { i64, i64, i64, i32, i32, i32, i32, i64, i64, i64, i64, %struct.timespec, %struct.timespec, %struct.timespec, [3 x i64] }
%struct.timespec = type { i64, i64 }

@.str.3 = private unnamed_addr constant [14 x i8] c"xlogarchive.c\00", align 1
@.str.13 = private unnamed_addr constant [7 x i8] c".ready\00", align 1
@.str.14 = private unnamed_addr constant [2 x i8] c"w\00", align 1
@.str.15 = private unnamed_addr constant [46 x i8] c"could not create archive status file \22%s\22: %m\00", align 1
@.str.16 = private unnamed_addr constant [45 x i8] c"could not write archive status file \22%s\22: %m\00", align 1
@.str.17 = private unnamed_addr constant [6 x i8] c".done\00", align 1
@__func__.XLogArchiveForceDone = private unnamed_addr constant [21 x i8] c"XLogArchiveForceDone\00", align 1
@.str.19 = private unnamed_addr constant [27 x i8] c"pg_wal/archive_status/%s%s\00", align 1

; Function Attrs: inlinehint nounwind uwtable
define internal void @StatusFilePath(ptr noundef %0, ptr noundef %1, ptr noundef %2) #7 {
  %4 = alloca ptr, align 8
  %5 = alloca ptr, align 8
  %6 = alloca ptr, align 8
  store ptr %0, ptr %4, align 8
  store ptr %1, ptr %5, align 8
  store ptr %2, ptr %6, align 8
  %7 = load ptr, ptr %4, align 8
  %8 = load ptr, ptr %5, align 8
  %9 = load ptr, ptr %6, align 8
  %10 = call i32 (ptr, i64, ptr, ...) @pg_snprintf(ptr noundef %7, i64 noundef 1024, ptr noundef @.str.19, ptr noundef %8, ptr noundef %9)
  ret void
}

; Function Attrs: nounwind uwtable
define dso_local void @XLogArchiveForceDone(ptr noundef %0) #0 {
  %2 = alloca ptr, align 8
  %3 = alloca [1024 x i8], align 16
  %4 = alloca [1024 x i8], align 16
  %5 = alloca %struct.stat, align 8
  %6 = alloca ptr, align 8
  %7 = alloca i32, align 4
  store ptr %0, ptr %2, align 8
  call void @llvm.lifetime.start.p0(i64 1024, ptr %3) #10
  call void @llvm.lifetime.start.p0(i64 1024, ptr %4) #10
  call void @llvm.lifetime.start.p0(i64 144, ptr %5) #10
  call void @llvm.lifetime.start.p0(i64 8, ptr %6) #10
  %8 = getelementptr inbounds [1024 x i8], ptr %4, i64 0, i64 0
  %9 = load ptr, ptr %2, align 8
  call void @StatusFilePath(ptr noundef %8, ptr noundef %9, ptr noundef @.str.17)
  %10 = getelementptr inbounds [1024 x i8], ptr %4, i64 0, i64 0
  %11 = call i32 @stat(ptr noundef %10, ptr noundef %5) #10
  %12 = icmp eq i32 %11, 0
  br i1 %12, label %13, label %14

13:                                               ; preds = %1
  store i32 1, ptr %7, align 4
  br label %60

14:                                               ; preds = %1
  %15 = getelementptr inbounds [1024 x i8], ptr %3, i64 0, i64 0
  %16 = load ptr, ptr %2, align 8
  call void @StatusFilePath(ptr noundef %15, ptr noundef %16, ptr noundef @.str.13)
  %17 = getelementptr inbounds [1024 x i8], ptr %3, i64 0, i64 0
  %18 = call i32 @stat(ptr noundef %17, ptr noundef %5) #10
  %19 = icmp eq i32 %18, 0
  br i1 %19, label %20, label %24

20:                                               ; preds = %14
  %21 = getelementptr inbounds [1024 x i8], ptr %3, i64 0, i64 0
  %22 = getelementptr inbounds [1024 x i8], ptr %4, i64 0, i64 0
  %23 = call i32 @durable_rename(ptr noundef %21, ptr noundef %22, i32 noundef 19)
  store i32 1, ptr %7, align 4
  br label %60

24:                                               ; preds = %14
  %25 = getelementptr inbounds [1024 x i8], ptr %4, i64 0, i64 0
  %26 = call ptr @AllocateFile(ptr noundef %25, ptr noundef @.str.14)
  store ptr %26, ptr %6, align 8
  %27 = load ptr, ptr %6, align 8
  %28 = icmp eq ptr %27, null
  br i1 %28, label %29, label %42

29:                                               ; preds = %24
  br label %30

30:                                               ; preds = %29
  br i1 false, label %31, label %33

31:                                               ; preds = %30
  %32 = call zeroext i1 @errstart_cold(i32 noundef 15, ptr noundef null) #13
  br i1 %32, label %35, label %39

33:                                               ; preds = %30
  %34 = call zeroext i1 @errstart(i32 noundef 15, ptr noundef null)
  br i1 %34, label %35, label %39

35:                                               ; preds = %33, %31
  %36 = call i32 @errcode_for_file_access()
  %37 = getelementptr inbounds [1024 x i8], ptr %4, i64 0, i64 0
  %38 = call i32 (ptr, ...) @errmsg(ptr noundef @.str.15, ptr noundef %37)
  call void @errfinish(ptr noundef @.str.3, i32 noundef 537, ptr noundef @__func__.XLogArchiveForceDone)
  br label %39

39:                                               ; preds = %35, %33, %31
  br label %40

40:                                               ; preds = %39
  br label %41

41:                                               ; preds = %40
  store i32 1, ptr %7, align 4
  br label %60

42:                                               ; preds = %24
  %43 = load ptr, ptr %6, align 8
  %44 = call i32 @FreeFile(ptr noundef %43)
  %45 = icmp ne i32 %44, 0
  br i1 %45, label %46, label %59

46:                                               ; preds = %42
  br label %47

47:                                               ; preds = %46
  br i1 false, label %48, label %50

48:                                               ; preds = %47
  %49 = call zeroext i1 @errstart_cold(i32 noundef 15, ptr noundef null) #13
  br i1 %49, label %52, label %56

50:                                               ; preds = %47
  %51 = call zeroext i1 @errstart(i32 noundef 15, ptr noundef null)
  br i1 %51, label %52, label %56

52:                                               ; preds = %50, %48
  %53 = call i32 @errcode_for_file_access()
  %54 = getelementptr inbounds [1024 x i8], ptr %4, i64 0, i64 0
  %55 = call i32 (ptr, ...) @errmsg(ptr noundef @.str.16, ptr noundef %54)
  call void @errfinish(ptr noundef @.str.3, i32 noundef 545, ptr noundef @__func__.XLogArchiveForceDone)
  br label %56

56:                                               ; preds = %52, %50, %48
  br label %57

57:                                               ; preds = %56
  br label %58

58:                                               ; preds = %57
  store i32 1, ptr %7, align 4
  br label %60

59:                                               ; preds = %42
  store i32 0, ptr %7, align 4
  br label %60

60:                                               ; preds = %59, %58, %41, %20, %13
  call void @llvm.lifetime.end.p0(i64 8, ptr %6) #10
  call void @llvm.lifetime.end.p0(i64 144, ptr %5) #10
  call void @llvm.lifetime.end.p0(i64 1024, ptr %4) #10
  call void @llvm.lifetime.end.p0(i64 1024, ptr %3) #10
  %61 = load i32, ptr %7, align 4
  switch i32 %61, label %63 [
    i32 0, label %62
    i32 1, label %62
  ]

62:                                               ; preds = %60, %60
  ret void

63:                                               ; preds = %60
  unreachable
}