; Function Attrs: nounwind uwtable
define dso_local void @XLogArchiveForceDone(ptr noundef %0) local_unnamed_addr #0 {
  %2 = alloca [1024 x i8], align 16
  %3 = alloca [1024 x i8], align 16
  %4 = alloca %struct.stat, align 8
  call void @llvm.lifetime.start.p0(i64 1024, ptr nonnull %2) #11
  call void @llvm.lifetime.start.p0(i64 1024, ptr nonnull %3) #11
  call void @llvm.lifetime.start.p0(i64 144, ptr nonnull %4) #11
  %5 = call i32 (ptr, i64, ptr, ...) @pg_snprintf(ptr noundef nonnull %3, i64 noundef 1024, ptr noundef nonnull @.str.19, ptr noundef %0, ptr noundef nonnull @.str.17) #11
  %6 = call i32 @stat(ptr noundef nonnull %3, ptr noundef nonnull %4) #11
  %7 = icmp eq i32 %6, 0
  br i1 %7, label %29, label %8

8:                                                ; preds = %1
  %9 = call i32 (ptr, i64, ptr, ...) @pg_snprintf(ptr noundef nonnull %2, i64 noundef 1024, ptr noundef nonnull @.str.19, ptr noundef %0, ptr noundef nonnull @.str.13) #11
  %10 = call i32 @stat(ptr noundef nonnull %2, ptr noundef nonnull %4) #11
  %11 = icmp eq i32 %10, 0
  br i1 %11, label %12, label %14

12:                                               ; preds = %8
  %13 = call i32 @durable_rename(ptr noundef nonnull %2, ptr noundef nonnull %3, i32 noundef 19) #11
  br label %29

14:                                               ; preds = %8
  %15 = call ptr @AllocateFile(ptr noundef nonnull %3, ptr noundef nonnull @.str.14) #11
  %16 = icmp eq ptr %15, null
  br i1 %16, label %17, label %22

17:                                               ; preds = %14
  %18 = call zeroext i1 @errstart(i32 noundef 15, ptr noundef null) #11
  br i1 %18, label %19, label %29

19:                                               ; preds = %17
  %20 = call i32 @errcode_for_file_access() #11
  %21 = call i32 (ptr, ...) @errmsg(ptr noundef nonnull @.str.15, ptr noundef nonnull %3) #11
  call void @errfinish(ptr noundef nonnull @.str.3, i32 noundef 537, ptr noundef nonnull @__func__.XLogArchiveForceDone) #11
  br label %29

22:                                               ; preds = %14
  %23 = call i32 @FreeFile(ptr noundef nonnull %15) #11
  %.not = icmp eq i32 %23, 0
  br i1 %.not, label %29, label %24

24:                                               ; preds = %22
  %25 = call zeroext i1 @errstart(i32 noundef 15, ptr noundef null) #11
  br i1 %25, label %26, label %29

26:                                               ; preds = %24
  %27 = call i32 @errcode_for_file_access() #11
  %28 = call i32 (ptr, ...) @errmsg(ptr noundef nonnull @.str.16, ptr noundef nonnull %3) #11
  call void @errfinish(ptr noundef nonnull @.str.3, i32 noundef 545, ptr noundef nonnull @__func__.XLogArchiveForceDone) #11
  br label %29

29:                                               ; preds = %22, %24, %26, %17, %19, %1, %12
  call void @llvm.lifetime.end.p0(i64 144, ptr nonnull %4) #11
  call void @llvm.lifetime.end.p0(i64 1024, ptr nonnull %3) #11
  call void @llvm.lifetime.end.p0(i64 1024, ptr nonnull %2) #11
  ret void
}